; Function Attrs: mustprogress norecurse uwtable
define internal fastcc void @_ZL10norm_0_255RKN2cv11_InputArrayE(ptr dead_on_unwind noalias writable align 8 %0, ptr noundef nonnull align 8 dereferenceable(24) %1) unnamed_addr #3 personality ptr @__gxx_personality_v0 {
  %3 = alloca %"class.cv::Mat", align 8
  %4 = alloca %"class.cv::_InputOutputArray", align 8
  %5 = alloca %"class.cv::_InputOutputArray", align 8
  %6 = alloca %"class.cv::_OutputArray", align 8
  %7 = tail call noundef i32 @_ZNK2cv11_InputArray4kindEv(ptr noundef nonnull align 8 dereferenceable(24) %1), !noalias !13
  %8 = icmp eq i32 %7, 65536
  br i1 %8, label %9, label %12

9:                                                ; preds = %2
  %10 = getelementptr inbounds i8, ptr %1, i64 8
  %11 = load ptr, ptr %10, align 8, !noalias !13
  call void @_ZN2cv3MatC1ERKS0_(ptr noundef nonnull align 8 dereferenceable(96) %3, ptr noundef nonnull align 8 dereferenceable(96) %11)
  br label %_ZNK2cv11_InputArray6getMatEi.exit

12:                                               ; preds = %2
  call void @_ZNK2cv11_InputArray7getMat_Ei(ptr dead_on_unwind nonnull writable sret(%"class.cv::Mat") align 8 %3, ptr noundef nonnull align 8 dereferenceable(24) %1, i32 noundef -1)
  br label %_ZNK2cv11_InputArray6getMatEi.exit

_ZNK2cv11_InputArray6getMatEi.exit:               ; preds = %9, %12
  call void @_ZN2cv3MatC1Ev(ptr noundef nonnull align 8 dereferenceable(96) %0) #19
  %13 = load i32, ptr %3, align 8
  %14 = lshr i32 %13, 3
  %15 = and i32 %14, 511
  switch i32 %15, label %30 [
    i32 0, label %16
    i32 2, label %23
  ]

16:                                               ; preds = %_ZNK2cv11_InputArray6getMatEi.exit
  %17 = getelementptr inbounds i8, ptr %4, i64 8
  %18 = getelementptr inbounds i8, ptr %4, i64 16
  store i64 0, ptr %18, align 8
  store i32 50397184, ptr %4, align 8
  store ptr %0, ptr %17, align 8
  %19 = invoke noundef nonnull align 8 dereferenceable(24) ptr @_ZN2cv7noArrayEv()
          to label %20 unwind label %21

20:                                               ; preds = %16
  invoke void @_ZN2cv9normalizeERKNS_11_InputArrayERKNS_17_InputOutputArrayEddiiS2_(ptr noundef nonnull align 8 dereferenceable(24) %1, ptr noundef nonnull align 8 dereferenceable(24) %4, double noundef 0.000000e+00, double noundef 2.550000e+02, i32 noundef 32, i32 noundef 0, ptr noundef nonnull align 8 dereferenceable(24) %19)
          to label %35 unwind label %21

21:                                               ; preds = %20, %16
  %22 = landingpad { ptr, i32 }
          cleanup
  br label %36

23:                                               ; preds = %_ZNK2cv11_InputArray6getMatEi.exit
  %24 = getelementptr inbounds i8, ptr %5, i64 8
  %25 = getelementptr inbounds i8, ptr %5, i64 16
  store i64 0, ptr %25, align 8
  store i32 50397184, ptr %5, align 8
  store ptr %0, ptr %24, align 8
  %26 = invoke noundef nonnull align 8 dereferenceable(24) ptr @_ZN2cv7noArrayEv()
          to label %27 unwind label %28

27:                                               ; preds = %23
  invoke void @_ZN2cv9normalizeERKNS_11_InputArrayERKNS_17_InputOutputArrayEddiiS2_(ptr noundef nonnull align 8 dereferenceable(24) %1, ptr noundef nonnull align 8 dereferenceable(24) %5, double noundef 0.000000e+00, double noundef 2.550000e+02, i32 noundef 32, i32 noundef 16, ptr noundef nonnull align 8 dereferenceable(24) %26)
          to label %35 unwind label %28

28:                                               ; preds = %27, %23
  %29 = landingpad { ptr, i32 }
          cleanup
  br label %36

30:                                               ; preds = %_ZNK2cv11_InputArray6getMatEi.exit
  %31 = getelementptr inbounds i8, ptr %6, i64 8
  %32 = getelementptr inbounds i8, ptr %6, i64 16
  store i64 0, ptr %32, align 8
  store i32 33619968, ptr %6, align 8
  store ptr %0, ptr %31, align 8
  invoke void @_ZNK2cv3Mat6copyToERKNS_12_OutputArrayE(ptr noundef nonnull align 8 dereferenceable(96) %3, ptr noundef nonnull align 8 dereferenceable(24) %6)
          to label %35 unwind label %33

33:                                               ; preds = %30
  %34 = landingpad { ptr, i32 }
          cleanup
  br label %36

35:                                               ; preds = %30, %27, %20
  call void @_ZN2cv3MatD1Ev(ptr noundef nonnull align 8 dereferenceable(96) %3) #19
  ret void

36:                                               ; preds = %33, %28, %21
  %.pn = phi { ptr, i32 } [ %34, %33 ], [ %29, %28 ], [ %22, %21 ]
  call void @_ZN2cv3MatD1Ev(ptr noundef nonnull align 8 dereferenceable(96) %0) #19
  call void @_ZN2cv3MatD1Ev(ptr noundef nonnull align 8 dereferenceable(96) %3) #19
  resume { ptr, i32 } %.pn
}